ccopy_reg
_reconstructor
p1
(cUnigramChunker
UnigramChunker
p2
c__builtin__
object
p3
NtRp4
(dp5
S'tagger'
p6
g1
(cnltk.tag.sequential
UnigramTagger
p7
g3
NtRp8
(dp9
S'_taggers'
p10
(lp11
g8
asS'_n'
p12
I1
sS'_context_to_tag'
p13
(dp14
S'PRP$'
p15
S'B-NP'
p16
sS'VBG'
p17
S'B-VP'
p18
sS'FW'
p19
S'I-NP'
p20
sS'VB'
p21
S'I-VP'
p22
sS'POS'
p23
S'B-NP'
p24
sS"''"
p25
S'O'
sS'VBP'
p26
S'B-VP'
p27
sS'WDT'
p28
S'B-NP'
p29
sS'JJ'
p30
S'I-NP'
p31
sS'WP'
p32
S'B-NP'
p33
sS'VBZ'
p34
S'B-VP'
p35
sS'DT'
p36
S'B-NP'
p37
sS'#'
S'B-NP'
p38
sS'RP'
p39
S'O'
sS'$'
S'B-NP'
p40
sS'NN'
p41
S'I-NP'
p42
sS')'
S'O'
sS'('
S'O'
sS'VBD'
p43
S'B-VP'
p44
sS','
S'O'
sS'.'
S'O'
sS'TO'
p45
S'B-PP'
p46
sS'PRP'
p47
S'B-NP'
p48
sS'RB'
p49
S'O'
sS':'
S'O'
sS'NNS'
p50
S'I-NP'
p51
sS'NNP'
p52
S'I-NP'
p53
sS'``'
p54
S'O'
sS'WRB'
p55
S'O'
sS'CC'
p56
S'O'
sS'PDT'
p57
S'B-NP'
p58
sS'RBS'
p59
S'B-NP'
p60
sS'RBR'
p61
S'O'
sS'VBN'
p62
S'I-VP'
p63
sS'EX'
p64
S'B-NP'
p65
sS'IN'
p66
S'B-PP'
p67
sS'WP$'
p68
S'B-NP'
p69
sS'CD'
p70
S'I-NP'
p71
sS'MD'
p72
S'B-VP'
p73
sS'NNPS'
p74
S'I-NP'
p75
sS'JJS'
p76
S'I-NP'
p77
sS'JJR'
p78
S'B-NP'
p79
sS'SYM'
p80
S'O'
sS'UH'
p81
S'O'
ssbsb.