ccopy_reg
_reconstructor
p1
(cnltk.classify.naivebayes
NaiveBayesClassifier
p2
c__builtin__
object
p3
NtRp4
(dp5
S'_labels'
p6
(lp7
S'movie'
p8
aS'person'
p9
asS'_feature_probdist'
p10
(dp11
(g8
S'length'
p12
tp13
g1
(cnltk.probability
ELEProbDist
p14
g3
NtRp15
(dp16
S'_gamma'
p17
F0.5
sS'_N'
p18
I2672
sS'_freqdist'
p19
g1
(cnltk.probability
FreqDist
p20
c__builtin__
dict
p21
(dp22
I1
I395
sI2
I663
sI3
I653
sI4
I451
sI5
I258
sI6
I114
sI7
I64
sI8
I35
sI9
I15
sI10
I9
sI11
I8
sI12
I4
sI13
I1
sI14
I1
sI15
I1
stRp23
(dp24
g18
I2672
sS'_max_cache'
p25
NsS'_item_cache'
p26
NsS'_Nr_cache'
p27
NsbsS'_bins'
p28
I16
sS'_divisor'
p29
F2680
sbs(g9
g12
tp30
g1
(g14
g3
NtRp31
(dp32
g17
F0.5
sg18
I2536
sg19
g1
(g20
g21
(dp33
I1
I27
sI2
I2069
sI3
I340
sI4
I87
sI5
I12
sI6
I1
stRp34
(dp35
g18
I2536
sg25
Nsg26
Nsg27
Nsbsg28
I16
sg29
F2544
sbssS'_label_probdist'
p36
g1
(g14
g3
NtRp37
(dp38
g17
F0.5
sg18
I5208
sg19
g1
(g20
g21
(dp39
g8
I2672
sg9
I2536
stRp40
(dp41
g18
I5208
sg25
Nsg26
(lp42
(g8
I2672
tp43
a(g9
I2536
tp44
asg27
Nsbsg28
I2
sg29
F5209
sbsb.